; Function Attrs: nofree nounwind uwtable
define void @Ifd_ObjPrint(ptr noundef %0, i32 noundef %1) local_unnamed_addr #8 {
  %3 = alloca i32, align 4
  call void @llvm.lifetime.start.p0(i64 4, ptr nonnull %3) #28
  store i32 0, ptr %3, align 4, !tbaa !37
  switch i32 %1, label %6 [
    i32 0, label %4
    i32 1, label %5
  ]

4:                                                ; preds = %2
  %putchar3 = tail call i32 @putchar(i32 48)
  br label %7

5:                                                ; preds = %2
  %putchar = tail call i32 @putchar(i32 49)
  br label %7

6:                                                ; preds = %2
  call void @Ifd_ObjPrint_rec(ptr noundef %0, i32 noundef %1, ptr noundef nonnull %3, i32 noundef 1)
  br label %7

7:                                                ; preds = %6, %5, %4
  call void @llvm.lifetime.end.p0(i64 4, ptr nonnull %3) #28
  ret void
}